	.file	"drv_gpio.c"
	.option nopic
	.text
.Ltext0:
	.cfi_sections	.debug_frame
	.section	.rodata.pins,"a"
	.align	2
	.type	pins, @object
	.size	pins, 960
pins:
	.half	0
	.zero	2
	.word	3072
	.word	1073872896
	.word	1
	.byte	0
	.byte	0
	.zero	2
	.half	1
	.zero	2
	.word	3072
	.word	1073872896
	.word	2
	.byte	0
	.byte	1
	.zero	2
	.half	2
	.zero	2
	.word	3072
	.word	1073872896
	.word	4
	.byte	0
	.byte	2
	.zero	2
	.half	3
	.zero	2
	.word	3072
	.word	1073872896
	.word	8
	.byte	0
	.byte	3
	.zero	2
	.half	4
	.zero	2
	.word	3072
	.word	1073872896
	.word	16
	.byte	0
	.byte	4
	.zero	2
	.half	5
	.zero	2
	.word	3072
	.word	1073872896
	.word	32
	.byte	0
	.byte	5
	.zero	2
	.half	6
	.zero	2
	.word	3072
	.word	1073872896
	.word	64
	.byte	0
	.byte	6
	.zero	2
	.half	7
	.zero	2
	.word	3072
	.word	1073872896
	.word	128
	.byte	0
	.byte	7
	.zero	2
	.half	8
	.zero	2
	.word	3072
	.word	1073872896
	.word	256
	.byte	0
	.byte	8
	.zero	2
	.half	9
	.zero	2
	.word	3072
	.word	1073872896
	.word	512
	.byte	0
	.byte	9
	.zero	2
	.half	10
	.zero	2
	.word	3072
	.word	1073872896
	.word	1024
	.byte	0
	.byte	10
	.zero	2
	.half	11
	.zero	2
	.word	3072
	.word	1073872896
	.word	2048
	.byte	0
	.byte	11
	.zero	2
	.half	12
	.zero	2
	.word	3072
	.word	1073872896
	.word	4096
	.byte	0
	.byte	12
	.zero	2
	.half	13
	.zero	2
	.word	3072
	.word	1073872896
	.word	8192
	.byte	0
	.byte	13
	.zero	2
	.half	14
	.zero	2
	.word	3072
	.word	1073872896
	.word	16384
	.byte	0
	.byte	14
	.zero	2
	.half	15
	.zero	2
	.word	3072
	.word	1073872896
	.word	32768
	.byte	0
	.byte	15
	.zero	2
	.half	16
	.zero	2
	.word	3073
	.word	1073873920
	.word	1
	.byte	1
	.byte	0
	.zero	2
	.half	17
	.zero	2
	.word	3073
	.word	1073873920
	.word	2
	.byte	1
	.byte	1
	.zero	2
	.half	18
	.zero	2
	.word	3073
	.word	1073873920
	.word	4
	.byte	1
	.byte	2
	.zero	2
	.half	19
	.zero	2
	.word	3073
	.word	1073873920
	.word	8
	.byte	1
	.byte	3
	.zero	2
	.half	20
	.zero	2
	.word	3073
	.word	1073873920
	.word	16
	.byte	1
	.byte	4
	.zero	2
	.half	21
	.zero	2
	.word	3073
	.word	1073873920
	.word	32
	.byte	1
	.byte	5
	.zero	2
	.half	22
	.zero	2
	.word	3073
	.word	1073873920
	.word	64
	.byte	1
	.byte	6
	.zero	2
	.half	23
	.zero	2
	.word	3073
	.word	1073873920
	.word	128
	.byte	1
	.byte	7
	.zero	2
	.half	24
	.zero	2
	.word	3073
	.word	1073873920
	.word	256
	.byte	1
	.byte	8
	.zero	2
	.half	25
	.zero	2
	.word	3073
	.word	1073873920
	.word	512
	.byte	1
	.byte	9
	.zero	2
	.half	26
	.zero	2
	.word	3073
	.word	1073873920
	.word	1024
	.byte	1
	.byte	10
	.zero	2
	.half	27
	.zero	2
	.word	3073
	.word	1073873920
	.word	2048
	.byte	1
	.byte	11
	.zero	2
	.half	28
	.zero	2
	.word	3073
	.word	1073873920
	.word	4096
	.byte	1
	.byte	12
	.zero	2
	.half	39
	.zero	2
	.word	3073
	.word	1073873920
	.word	8192
	.byte	1
	.byte	13
	.zero	2
	.half	30
	.zero	2
	.word	3073
	.word	1073873920
	.word	16384
	.byte	1
	.byte	14
	.zero	2
	.half	31
	.zero	2
	.word	3073
	.word	1073873920
	.word	32768
	.byte	1
	.byte	15
	.zero	2
	.half	32
	.zero	2
	.word	3074
	.word	1073874944
	.word	1
	.byte	2
	.byte	0
	.zero	2
	.half	33
	.zero	2
	.word	3074
	.word	1073874944
	.word	2
	.byte	2
	.byte	1
	.zero	2
	.half	34
	.zero	2
	.word	3074
	.word	1073874944
	.word	4
	.byte	2
	.byte	2
	.zero	2
	.half	35
	.zero	2
	.word	3074
	.word	1073874944
	.word	8
	.byte	2
	.byte	3
	.zero	2
	.half	36
	.zero	2
	.word	3074
	.word	1073874944
	.word	16
	.byte	2
	.byte	4
	.zero	2
	.half	37
	.zero	2
	.word	3074
	.word	1073874944
	.word	32
	.byte	2
	.byte	5
	.zero	2
	.half	38
	.zero	2
	.word	3074
	.word	1073874944
	.word	64
	.byte	2
	.byte	6
	.zero	2
	.half	39
	.zero	2
	.word	3074
	.word	1073874944
	.word	128
	.byte	2
	.byte	7
	.zero	2
	.half	40
	.zero	2
	.word	3074
	.word	1073874944
	.word	256
	.byte	2
	.byte	8
	.zero	2
	.half	41
	.zero	2
	.word	3074
	.word	1073874944
	.word	512
	.byte	2
	.byte	9
	.zero	2
	.half	42
	.zero	2
	.word	3074
	.word	1073874944
	.word	1024
	.byte	2
	.byte	10
	.zero	2
	.half	43
	.zero	2
	.word	3074
	.word	1073874944
	.word	2048
	.byte	2
	.byte	11
	.zero	2
	.half	44
	.zero	2
	.word	3074
	.word	1073874944
	.word	4096
	.byte	2
	.byte	12
	.zero	2
	.half	45
	.zero	2
	.word	3074
	.word	1073874944
	.word	8192
	.byte	2
	.byte	13
	.zero	2
	.half	46
	.zero	2
	.word	3074
	.word	1073874944
	.word	16384
	.byte	2
	.byte	14
	.zero	2
	.half	47
	.zero	2
	.word	3074
	.word	1073874944
	.word	32768
	.byte	2
	.byte	15
	.zero	2
	.section	.rodata.pin_irq_map,"a"
	.align	2
	.type	pin_irq_map, @object
	.size	pin_irq_map, 128
pin_irq_map:
	.half	1
	.zero	2
	.word	25
	.half	2
	.zero	2
	.word	26
	.half	4
	.zero	2
	.word	27
	.half	8
	.zero	2
	.word	28
	.half	16
	.zero	2
	.word	29
	.half	32
	.zero	2
	.word	42
	.half	64
	.zero	2
	.word	42
	.half	128
	.zero	2
	.word	42
	.half	256
	.zero	2
	.word	42
	.half	512
	.zero	2
	.word	42
	.half	1024
	.zero	2
	.word	59
	.half	2048
	.zero	2
	.word	59
	.half	4096
	.zero	2
	.word	59
	.half	8192
	.zero	2
	.word	59
	.half	16384
	.zero	2
	.word	59
	.half	-32768
	.zero	2
	.word	59
	.globl	pin_irq_hdr_tab
	.section	.data.pin_irq_hdr_tab,"aw"
	.align	2
	.type	pin_irq_hdr_tab, @object
	.size	pin_irq_hdr_tab, 256
pin_irq_hdr_tab:
	.word	-1
	.byte	0
	.zero	3
	.word	0
	.word	0
	.word	-1
	.byte	0
	.zero	3
	.word	0
	.word	0
	.word	-1
	.byte	0
	.zero	3
	.word	0
	.word	0
	.word	-1
	.byte	0
	.zero	3
	.word	0
	.word	0
	.word	-1
	.byte	0
	.zero	3
	.word	0
	.word	0
	.word	-1
	.byte	0
	.zero	3
	.word	0
	.word	0
	.word	-1
	.byte	0
	.zero	3
	.word	0
	.word	0
	.word	-1
	.byte	0
	.zero	3
	.word	0
	.word	0
	.word	-1
	.byte	0
	.zero	3
	.word	0
	.word	0
	.word	-1
	.byte	0
	.zero	3
	.word	0
	.word	0
	.word	-1
	.byte	0
	.zero	3
	.word	0
	.word	0
	.word	-1
	.byte	0
	.zero	3
	.word	0
	.word	0
	.word	-1
	.byte	0
	.zero	3
	.word	0
	.word	0
	.word	-1
	.byte	0
	.zero	3
	.word	0
	.word	0
	.word	-1
	.byte	0
	.zero	3
	.word	0
	.word	0
	.word	-1
	.byte	0
	.zero	3
	.word	0
	.word	0
	.section	.text.get_pin,"ax",@progbits
	.align	1
	.globl	get_pin
	.type	get_pin, @function
get_pin:
.LFB407:
	.file 1 "E:\\GD32\\GD32VW5\\rt-thread-gd32vw553\\rt-thread-main\\rt-thread\\bsp\\gd32\\risc-v\\libraries\\gd32_drivers\\drv_gpio.c"
	.loc 1 161 1
	.cfi_startproc
	addi	sp,sp,-48
	.cfi_def_cfa_offset 48
	sw	s0,44(sp)
	.cfi_offset 8, -4
	addi	s0,sp,48
	.cfi_def_cfa 8, 0
	mv	a5,a0
	sb	a5,-33(s0)
	.loc 1 164 8
	lbu	a4,-33(s0)
	li	a5,47
	bgtu	a4,a5,.L2
	.loc 1 166 22
	lbu	a4,-33(s0)
	.loc 1 166 15
	mv	a5,a4
	slli	a5,a5,2
	add	a5,a5,a4
	slli	a5,a5,2
	lla	a4,pins
	add	a5,a5,a4
	sw	a5,-20(s0)
	.loc 1 167 18
	lw	a5,-20(s0)
	lh	a4,0(a5)
	.loc 1 167 12
	li	a5,-1
	bne	a4,a5,.L4
	.loc 1 168 15
	sw	zero,-20(s0)
	j	.L4
.L2:
	.loc 1 172 15
	sw	zero,-20(s0)
.L4:
	.loc 1 175 12
	lw	a5,-20(s0)
	.loc 1 176 1
	mv	a0,a5
	lw	s0,44(sp)
	.cfi_restore 8
	addi	sp,sp,48
	.cfi_def_cfa_register 2
	jr	ra
	.cfi_endproc
.LFE407:
	.size	get_pin, .-get_pin
	.section	.text.gd32_pin_mode,"ax",@progbits
	.align	1
	.type	gd32_pin_mode, @function
gd32_pin_mode:
.LFB408:
	.loc 1 184 1
	.cfi_startproc
	addi	sp,sp,-64
	.cfi_def_cfa_offset 64
	sw	ra,60(sp)
	sw	s0,56(sp)
	.cfi_offset 1, -4
	.cfi_offset 8, -8
	addi	s0,sp,64
	.cfi_def_cfa 8, 0
	sw	a0,-52(s0)
	sw	a1,-56(s0)
	mv	a5,a2
	sb	a5,-57(s0)
	.loc 1 185 29
	sw	zero,-32(s0)
	.loc 1 190 17
	li	a5,1
	sw	a5,-20(s0)
	.loc 1 191 17
	sw	zero,-24(s0)
	.loc 1 192 17
	sw	zero,-28(s0)
	.loc 1 193 17
	li	a5,2
	sw	a5,-36(s0)
	.loc 1 198 13
	lw	a5,-56(s0)
	andi	a5,a5,0xff
	mv	a0,a5
	call	get_pin
	sw	a0,-32(s0)
	.loc 1 199 8
	lw	a5,-32(s0)
	beqz	a5,.L17
	.loc 1 205 5
	lw	a5,-32(s0)
	lw	a5,4(a5)
	mv	a0,a5
	call	rcu_periph_clock_enable
	.loc 1 207 5
	lbu	a5,-57(s0)
	li	a4,4
	bgtu	a5,a4,.L18
	slli	a4,a5,2
	lla	a5,.L11
	add	a5,a4,a5
	lw	a4,0(a5)
	lla	a5,.L11
	add	a5,a4,a5
	jr	a5
	.section	.rodata.gd32_pin_mode,"a",@progbits
	.align	2
	.align	2
.L11:
	.word	.L15-.L11
	.word	.L14-.L11
	.word	.L13-.L11
	.word	.L12-.L11
	.word	.L10-.L11
	.section	.text.gd32_pin_mode
.L15:
	.loc 1 214 18
	li	a5,1
	sw	a5,-20(s0)
	.loc 1 218 9
	j	.L16
.L10:
	.loc 1 224 19
	li	a5,1
	sw	a5,-28(s0)
	.loc 1 228 9
	j	.L16
.L14:
	.loc 1 234 18
	sw	zero,-20(s0)
	.loc 1 238 9
	j	.L16
.L13:
	.loc 1 244 18
	sw	zero,-20(s0)
	.loc 1 245 26
	li	a5,1
	sw	a5,-24(s0)
	.loc 1 249 9
	j	.L16
.L12:
	.loc 1 255 18
	sw	zero,-20(s0)
	.loc 1 256 26
	li	a5,2
	sw	a5,-24(s0)
	.loc 1 260 9
	j	.L16
.L18:
	.loc 1 262 13
	nop
.L16:
	.loc 1 268 5
	lw	a5,-32(s0)
	lw	a4,8(a5)
	lw	a5,-32(s0)
	lw	a5,12(a5)
	mv	a3,a5
	lw	a2,-24(s0)
	lw	a1,-20(s0)
	mv	a0,a4
	call	gpio_mode_set
	.loc 1 269 5
	lw	a5,-32(s0)
	lw	a4,8(a5)
	lw	a5,-28(s0)
	andi	a1,a5,0xff
	lw	a5,-32(s0)
	lw	a5,12(a5)
	mv	a3,a5
	lw	a2,-36(s0)
	mv	a0,a4
	call	gpio_output_options_set
	j	.L6
.L17:
	.loc 1 201 9
	nop
.L6:
	.loc 1 275 1
	lw	ra,60(sp)
	.cfi_restore 1
	lw	s0,56(sp)
	.cfi_restore 8
	addi	sp,sp,64
	.cfi_def_cfa_register 2
	jr	ra
	.cfi_endproc
.LFE408:
	.size	gd32_pin_mode, .-gd32_pin_mode
	.section	.text.gd32_pin_write,"ax",@progbits
	.align	1
	.type	gd32_pin_write, @function
gd32_pin_write:
.LFB409:
	.loc 1 283 1
	.cfi_startproc
	addi	sp,sp,-48
	.cfi_def_cfa_offset 48
	sw	ra,44(sp)
	sw	s0,40(sp)
	.cfi_offset 1, -4
	.cfi_offset 8, -8
	addi	s0,sp,48
	.cfi_def_cfa 8, 0
	sw	a0,-36(s0)
	sw	a1,-40(s0)
	mv	a5,a2
	sb	a5,-41(s0)
	.loc 1 284 29
	sw	zero,-20(s0)
	.loc 1 286 13
	lw	a5,-40(s0)
	andi	a5,a5,0xff
	mv	a0,a5
	call	get_pin
	sw	a0,-20(s0)
	.loc 1 287 8
	lw	a5,-20(s0)
	beqz	a5,.L22
	.loc 1 292 5
	lw	a5,-20(s0)
	lw	a4,8(a5)
	lw	a5,-20(s0)
	lw	a5,12(a5)
	lbu	a3,-41(s0)
	mv	a2,a3
	mv	a1,a5
	mv	a0,a4
	call	gpio_bit_write
	j	.L19
.L22:
	.loc 1 289 9
	nop
.L19:
	.loc 1 293 1
	lw	ra,44(sp)
	.cfi_restore 1
	lw	s0,40(sp)
	.cfi_restore 8
	addi	sp,sp,48
	.cfi_def_cfa_register 2
	jr	ra
	.cfi_endproc
.LFE409:
	.size	gd32_pin_write, .-gd32_pin_write
	.section	.text.gd32_pin_read,"ax",@progbits
	.align	1
	.type	gd32_pin_read, @function
gd32_pin_read:
.LFB410:
	.loc 1 301 1
	.cfi_startproc
	addi	sp,sp,-48
	.cfi_def_cfa_offset 48
	sw	ra,44(sp)
	sw	s0,40(sp)
	.cfi_offset 1, -4
	.cfi_offset 8, -8
	addi	s0,sp,48
	.cfi_def_cfa 8, 0
	sw	a0,-36(s0)
	sw	a1,-40(s0)
	.loc 1 302 16
	sw	zero,-20(s0)
	.loc 1 303 29
	sw	zero,-24(s0)
	.loc 1 305 13
	lw	a5,-40(s0)
	andi	a5,a5,0xff
	mv	a0,a5
	call	get_pin
	sw	a0,-24(s0)
	.loc 1 306 8
	lw	a5,-24(s0)
	bnez	a5,.L24
	.loc 1 308 16
	li	a5,-22
	j	.L25
.L24:
	.loc 1 311 13
	lw	a5,-24(s0)
	lw	a4,8(a5)
	lw	a5,-24(s0)
	lw	a5,12(a5)
	mv	a1,a5
	mv	a0,a4
	call	gpio_input_bit_get
	mv	a5,a0
	.loc 1 311 11
	sw	a5,-20(s0)
	.loc 1 312 12
	lw	a5,-20(s0)
.L25:
	.loc 1 313 1
	mv	a0,a5
	lw	ra,44(sp)
	.cfi_restore 1
	lw	s0,40(sp)
	.cfi_restore 8
	addi	sp,sp,48
	.cfi_def_cfa_register 2
	jr	ra
	.cfi_endproc
.LFE410:
	.size	gd32_pin_read, .-gd32_pin_read
	.section	.text.bit2bitno,"ax",@progbits
	.align	1
	.type	bit2bitno, @function
bit2bitno:
.LFB411:
	.loc 1 321 1
	.cfi_startproc
	addi	sp,sp,-48
	.cfi_def_cfa_offset 48
	sw	s0,44(sp)
	.cfi_offset 8, -4
	addi	s0,sp,48
	.cfi_def_cfa 8, 0
	sw	a0,-36(s0)
	.loc 1 323 12
	sb	zero,-17(s0)
	.loc 1 323 5
	j	.L27
.L30:
	.loc 1 325 19
	lbu	a5,-17(s0)
	li	a4,1
	sll	a4,a4,a5
	.loc 1 325 25
	lw	a5,-36(s0)
	.loc 1 325 12
	bne	a4,a5,.L28
	.loc 1 327 20
	lbu	a5,-17(s0)
	j	.L29
.L28:
	.loc 1 323 26 discriminator 2
	lbu	a5,-17(s0)
	addi	a5,a5,1
	sb	a5,-17(s0)
.L27:
	.loc 1 323 5 discriminator 1
	lbu	a4,-17(s0)
	li	a5,31
	bleu	a4,a5,.L30
	.loc 1 330 12
	li	a5,-1
.L29:
	.loc 1 331 1
	mv	a0,a5
	lw	s0,44(sp)
	.cfi_restore 8
	addi	sp,sp,48
	.cfi_def_cfa_register 2
	jr	ra
	.cfi_endproc
.LFE411:
	.size	bit2bitno, .-bit2bitno
	.section	.text.get_pin_irq_map,"ax",@progbits
	.align	1
	.type	get_pin_irq_map, @function
get_pin_irq_map:
.LFB412:
	.loc 1 339 1
	.cfi_startproc
	addi	sp,sp,-48
	.cfi_def_cfa_offset 48
	sw	ra,44(sp)
	sw	s0,40(sp)
	.cfi_offset 1, -4
	.cfi_offset 8, -8
	addi	s0,sp,48
	.cfi_def_cfa 8, 0
	sw	a0,-36(s0)
	.loc 1 340 28
	lw	a0,-36(s0)
	call	bit2bitno
	sw	a0,-20(s0)
	.loc 1 341 8
	lw	a5,-20(s0)
	bltz	a5,.L32
	.loc 1 341 36 discriminator 1
	lw	a4,-20(s0)
	.loc 1 341 23 discriminator 1
	li	a5,15
	bleu	a4,a5,.L33
.L32:
	.loc 1 343 16
	li	a5,0
	j	.L34
.L33:
	.loc 1 345 12
	lw	a5,-20(s0)
	slli	a4,a5,3
	lla	a5,pin_irq_map
	add	a5,a4,a5
.L34:
	.loc 1 346 1
	mv	a0,a5
	lw	ra,44(sp)
	.cfi_restore 1
	lw	s0,40(sp)
	.cfi_restore 8
	addi	sp,sp,48
	.cfi_def_cfa_register 2
	jr	ra
	.cfi_endproc
.LFE412:
	.size	get_pin_irq_map, .-get_pin_irq_map
	.section	.text.gd32_pin_attach_irq,"ax",@progbits
	.align	1
	.type	gd32_pin_attach_irq, @function
gd32_pin_attach_irq:
.LFB413:
	.loc 1 355 1
	.cfi_startproc
	addi	sp,sp,-64
	.cfi_def_cfa_offset 64
	sw	ra,60(sp)
	sw	s0,56(sp)
	.cfi_offset 1, -4
	.cfi_offset 8, -8
	addi	s0,sp,64
	.cfi_def_cfa 8, 0
	sw	a0,-36(s0)
	sw	a1,-40(s0)
	mv	a5,a2
	sw	a3,-48(s0)
	sw	a4,-52(s0)
	sb	a5,-41(s0)
	.loc 1 356 29
	sw	zero,-20(s0)
	.loc 1 358 16
	li	a5,-1
	sw	a5,-24(s0)
	.loc 1 360 13
	lw	a5,-40(s0)
	andi	a5,a5,0xff
	mv	a0,a5
	call	get_pin
	sw	a0,-20(s0)
	.loc 1 361 8
	lw	a5,-20(s0)
	bnez	a5,.L36
	.loc 1 363 16
	li	a5,-22
	j	.L37
.L36:
	.loc 1 366 17
	lw	a5,-20(s0)
	lw	a5,12(a5)
	mv	a0,a5
	call	bit2bitno
	sw	a0,-24(s0)
	.loc 1 367 8
	lw	a5,-24(s0)
	bltz	a5,.L38
	.loc 1 367 36 discriminator 1
	lw	a4,-24(s0)
	.loc 1 367 23 discriminator 1
	li	a5,15
	bleu	a4,a5,.L39
.L38:
	.loc 1 369 16
	li	a5,-22
	j	.L37
.L39:
	.loc 1 372 13
	call	rt_hw_interrupt_disable
	sw	a0,-28(s0)
	.loc 1 373 35
	lla	a4,pin_irq_hdr_tab
	lw	a5,-24(s0)
	slli	a5,a5,4
	add	a5,a4,a5
	lw	a5,0(a5)
	.loc 1 373 8
	lw	a4,-40(s0)
	bne	a4,a5,.L40
	.loc 1 374 35 discriminator 1
	lla	a4,pin_irq_hdr_tab
	lw	a5,-24(s0)
	slli	a5,a5,4
	add	a5,a4,a5
	lw	a5,8(a5)
	.loc 1 373 47 discriminator 1
	lw	a4,-48(s0)
	bne	a4,a5,.L40
	.loc 1 375 35
	lla	a4,pin_irq_hdr_tab
	lw	a5,-24(s0)
	slli	a5,a5,4
	add	a5,a4,a5
	lbu	a5,4(a5)
	.loc 1 374 47
	lbu	a4,-41(s0)
	bne	a4,a5,.L40
	.loc 1 376 35
	lla	a4,pin_irq_hdr_tab
	lw	a5,-24(s0)
	slli	a5,a5,4
	add	a5,a4,a5
	lw	a5,12(a5)
	.loc 1 375 49
	lw	a4,-52(s0)
	bne	a4,a5,.L40
	.loc 1 378 9
	lw	a0,-28(s0)
	call	rt_hw_interrupt_enable
	.loc 1 379 16
	li	a5,0
	j	.L37
.L40:
	.loc 1 382 35
	lla	a4,pin_irq_hdr_tab
	lw	a5,-24(s0)
	slli	a5,a5,4
	add	a5,a4,a5
	lw	a4,0(a5)
	.loc 1 382 8
	li	a5,-1
	beq	a4,a5,.L41
	.loc 1 384 9
	lw	a0,-28(s0)
	call	rt_hw_interrupt_enable
	.loc 1 385 16
	li	a5,-28
	j	.L37
.L41:
	.loc 1 387 36
	lla	a4,pin_irq_hdr_tab
	lw	a5,-24(s0)
	slli	a5,a5,4
	add	a5,a4,a5
	lw	a4,-40(s0)
	sw	a4,0(a5)
	.loc 1 388 36
	lla	a4,pin_irq_hdr_tab
	lw	a5,-24(s0)
	slli	a5,a5,4
	add	a5,a4,a5
	lw	a4,-48(s0)
	sw	a4,8(a5)
	.loc 1 389 37
	lla	a4,pin_irq_hdr_tab
	lw	a5,-24(s0)
	slli	a5,a5,4
	add	a5,a4,a5
	lbu	a4,-41(s0)
	sb	a4,4(a5)
	.loc 1 390 37
	lla	a4,pin_irq_hdr_tab
	lw	a5,-24(s0)
	slli	a5,a5,4
	add	a5,a4,a5
	lw	a4,-52(s0)
	sw	a4,12(a5)
	.loc 1 391 5
	lw	a0,-28(s0)
	call	rt_hw_interrupt_enable
	.loc 1 393 12
	li	a5,0
.L37:
	.loc 1 394 1
	mv	a0,a5
	lw	ra,60(sp)
	.cfi_restore 1
	lw	s0,56(sp)
	.cfi_restore 8
	addi	sp,sp,64
	.cfi_def_cfa_register 2
	jr	ra
	.cfi_endproc
.LFE413:
	.size	gd32_pin_attach_irq, .-gd32_pin_attach_irq
	.section	.text.gd32_pin_detach_irq,"ax",@progbits
	.align	1
	.type	gd32_pin_detach_irq, @function
gd32_pin_detach_irq:
.LFB414:
	.loc 1 402 1
	.cfi_startproc
	addi	sp,sp,-48
	.cfi_def_cfa_offset 48
	sw	ra,44(sp)
	sw	s0,40(sp)
	.cfi_offset 1, -4
	.cfi_offset 8, -8
	addi	s0,sp,48
	.cfi_def_cfa 8, 0
	sw	a0,-36(s0)
	sw	a1,-40(s0)
	.loc 1 403 29
	sw	zero,-20(s0)
	.loc 1 405 16
	li	a5,-1
	sw	a5,-24(s0)
	.loc 1 407 13
	lw	a5,-40(s0)
	andi	a5,a5,0xff
	mv	a0,a5
	call	get_pin
	sw	a0,-20(s0)
	.loc 1 408 8
	lw	a5,-20(s0)
	bnez	a5,.L43
	.loc 1 410 16
	li	a5,-22
	j	.L44
.L43:
	.loc 1 413 17
	lw	a5,-20(s0)
	lw	a5,12(a5)
	mv	a0,a5
	call	bit2bitno
	sw	a0,-24(s0)
	.loc 1 414 8
	lw	a5,-24(s0)
	bltz	a5,.L45
	.loc 1 414 36 discriminator 1
	lw	a4,-24(s0)
	.loc 1 414 23 discriminator 1
	li	a5,15
	bleu	a4,a5,.L46
.L45:
	.loc 1 416 16
	li	a5,-22
	j	.L44
.L46:
	.loc 1 419 13
	call	rt_hw_interrupt_disable
	sw	a0,-28(s0)
	.loc 1 420 35
	lla	a4,pin_irq_hdr_tab
	lw	a5,-24(s0)
	slli	a5,a5,4
	add	a5,a4,a5
	lw	a4,0(a5)
	.loc 1 420 8
	li	a5,-1
	bne	a4,a5,.L47
	.loc 1 422 9
	lw	a0,-28(s0)
	call	rt_hw_interrupt_enable
	.loc 1 423 16
	li	a5,0
	j	.L44
.L47:
	.loc 1 425 36
	lla	a4,pin_irq_hdr_tab
	lw	a5,-24(s0)
	slli	a5,a5,4
	add	a5,a4,a5
	li	a4,-1
	sw	a4,0(a5)
	.loc 1 426 36
	lla	a4,pin_irq_hdr_tab
	lw	a5,-24(s0)
	slli	a5,a5,4
	add	a5,a4,a5
	sw	zero,8(a5)
	.loc 1 427 37
	lla	a4,pin_irq_hdr_tab
	lw	a5,-24(s0)
	slli	a5,a5,4
	add	a5,a4,a5
	sb	zero,4(a5)
	.loc 1 428 37
	lla	a4,pin_irq_hdr_tab
	lw	a5,-24(s0)
	slli	a5,a5,4
	add	a5,a4,a5
	sw	zero,12(a5)
	.loc 1 429 5
	lw	a0,-28(s0)
	call	rt_hw_interrupt_enable
	.loc 1 431 12
	li	a5,0
.L44:
	.loc 1 432 1
	mv	a0,a5
	lw	ra,44(sp)
	.cfi_restore 1
	lw	s0,40(sp)
	.cfi_restore 8
	addi	sp,sp,48
	.cfi_def_cfa_register 2
	jr	ra
	.cfi_endproc
.LFE414:
	.size	gd32_pin_detach_irq, .-gd32_pin_detach_irq
	.section	.text.gd32_pin_irq_enable,"ax",@progbits
	.align	1
	.type	gd32_pin_irq_enable, @function
gd32_pin_irq_enable:
.LFB415:
	.loc 1 440 1
	.cfi_startproc
	addi	sp,sp,-64
	.cfi_def_cfa_offset 64
	sw	ra,60(sp)
	sw	s0,56(sp)
	.cfi_offset 1, -4
	.cfi_offset 8, -8
	addi	s0,sp,64
	.cfi_def_cfa 8, 0
	sw	a0,-52(s0)
	sw	a1,-56(s0)
	mv	a5,a2
	sb	a5,-57(s0)
	.loc 1 444 16
	li	a5,-1
	sw	a5,-24(s0)
	.loc 1 447 13
	lw	a5,-56(s0)
	andi	a5,a5,0xff
	mv	a0,a5
	call	get_pin
	sw	a0,-28(s0)
	.loc 1 448 8
	lw	a5,-28(s0)
	bnez	a5,.L49
	.loc 1 450 16
	li	a5,-22
	j	.L50
.L49:
	.loc 1 453 8
	lbu	a4,-57(s0)
	li	a5,1
	bne	a4,a5,.L51
	.loc 1 455 21
	lw	a5,-28(s0)
	lw	a5,12(a5)
	mv	a0,a5
	call	bit2bitno
	sw	a0,-24(s0)
	.loc 1 456 12
	lw	a5,-24(s0)
	bltz	a5,.L52
	.loc 1 456 40 discriminator 1
	lw	a4,-24(s0)
	.loc 1 456 27 discriminator 1
	li	a5,15
	bleu	a4,a5,.L53
.L52:
	.loc 1 458 20
	li	a5,-22
	j	.L50
.L53:
	.loc 1 461 17
	call	rt_hw_interrupt_disable
	sw	a0,-32(s0)
	.loc 1 462 39
	lla	a4,pin_irq_hdr_tab
	lw	a5,-24(s0)
	slli	a5,a5,4
	add	a5,a4,a5
	lw	a4,0(a5)
	.loc 1 462 12
	li	a5,-1
	bne	a4,a5,.L54
	.loc 1 464 13
	lw	a0,-32(s0)
	call	rt_hw_interrupt_enable
	.loc 1 465 20
	li	a5,-22
	j	.L50
.L54:
	.loc 1 468 16
	lw	a5,-24(s0)
	slli	a4,a5,3
	lla	a5,pin_irq_map
	add	a5,a4,a5
	sw	a5,-36(s0)
	.loc 1 470 43
	lla	a4,pin_irq_hdr_tab
	lw	a5,-24(s0)
	slli	a5,a5,4
	add	a5,a4,a5
	lbu	a5,4(a5)
	li	a4,1
	beq	a5,a4,.L55
	li	a4,2
	beq	a5,a4,.L56
	bnez	a5,.L57
	.loc 1 473 30
	sw	zero,-20(s0)
	.loc 1 474 17
	j	.L58
.L55:
	.loc 1 476 30
	li	a5,1
	sw	a5,-20(s0)
	.loc 1 477 17
	j	.L58
.L56:
	.loc 1 479 30
	li	a5,2
	sw	a5,-20(s0)
	.loc 1 480 17
	j	.L58
.L57:
	.loc 1 482 17
	lw	a0,-32(s0)
	call	rt_hw_interrupt_enable
	.loc 1 483 24
	li	a5,-22
	j	.L50
.L58:
	.loc 1 489 9
	li	a5,4096
	addi	a0,a5,270
	call	rcu_periph_clock_enable
	.loc 1 493 9
	lw	a5,-36(s0)
	lw	a5,4(a5)
	li	a2,0
	li	a1,5
	mv	a0,a5
	call	eclic_irq_enable
	.loc 1 499 9
	lw	a5,-28(s0)
	lbu	a4,16(a5)
	lw	a5,-28(s0)
	lbu	a5,17(a5)
	mv	a1,a5
	mv	a0,a4
	call	syscfg_exti_line_config
	.loc 1 503 41
	lw	a5,-28(s0)
	lw	a5,12(a5)
	.loc 1 503 9
	lw	a2,-20(s0)
	li	a1,0
	mv	a0,a5
	call	exti_init
	.loc 1 504 57
	lw	a5,-28(s0)
	lw	a5,12(a5)
	.loc 1 504 9
	mv	a0,a5
	call	exti_interrupt_flag_clear
	.loc 1 506 9
	lw	a0,-32(s0)
	call	rt_hw_interrupt_enable
	j	.L59
.L51:
	.loc 1 508 13
	lbu	a5,-57(s0)
	bnez	a5,.L60
	.loc 1 510 18
	lw	a5,-28(s0)
	lw	a5,12(a5)
	mv	a0,a5
	call	get_pin_irq_map
	sw	a0,-36(s0)
	.loc 1 511 12
	lw	a5,-36(s0)
	bnez	a5,.L61
	.loc 1 513 20
	li	a5,-22
	j	.L50
.L61:
	.loc 1 515 9
	lw	a5,-36(s0)
	lw	a5,4(a5)
	mv	a0,a5
	call	eclic_irq_disable
	j	.L59
.L60:
	.loc 1 519 16
	li	a5,-22
	j	.L50
.L59:
	.loc 1 522 12
	li	a5,0
.L50:
	.loc 1 523 1
	mv	a0,a5
	lw	ra,60(sp)
	.cfi_restore 1
	lw	s0,56(sp)
	.cfi_restore 8
	addi	sp,sp,64
	.cfi_def_cfa_register 2
	jr	ra
	.cfi_endproc
.LFE415:
	.size	gd32_pin_irq_enable, .-gd32_pin_irq_enable
	.section	.rodata.gd32_pin_ops,"a"
	.align	2
	.type	gd32_pin_ops, @object
	.size	gd32_pin_ops, 32
gd32_pin_ops:
	.word	gd32_pin_mode
	.word	gd32_pin_write
	.word	gd32_pin_read
	.word	gd32_pin_attach_irq
	.word	gd32_pin_detach_irq
	.word	gd32_pin_irq_enable
	.word	0
	.zero	4
	.section	.text.pin_irq_hdr,"ax",@progbits
	.align	1
	.type	pin_irq_hdr, @function
pin_irq_hdr:
.LFB416:
	.loc 1 542 1
	.cfi_startproc
	addi	sp,sp,-32
	.cfi_def_cfa_offset 32
	sw	ra,28(sp)
	sw	s0,24(sp)
	.cfi_offset 1, -4
	.cfi_offset 8, -8
	addi	s0,sp,32
	.cfi_def_cfa 8, 0
	sw	a0,-20(s0)
	.loc 1 543 31
	lla	a4,pin_irq_hdr_tab
	lw	a5,-20(s0)
	slli	a5,a5,4
	add	a5,a4,a5
	lw	a5,8(a5)
	.loc 1 543 8
	beqz	a5,.L64
	.loc 1 545 31
	lla	a4,pin_irq_hdr_tab
	lw	a5,-20(s0)
	slli	a5,a5,4
	add	a5,a4,a5
	lw	a3,8(a5)
	.loc 1 545 9
	lla	a4,pin_irq_hdr_tab
	lw	a5,-20(s0)
	slli	a5,a5,4
	add	a5,a4,a5
	lw	a5,12(a5)
	mv	a0,a5
	jalr	a3
.LVL0:
.L64:
	.loc 1 547 1
	nop
	lw	ra,28(sp)
	.cfi_restore 1
	lw	s0,24(sp)
	.cfi_restore 8
	addi	sp,sp,32
	.cfi_def_cfa_register 2
	jr	ra
	.cfi_endproc
.LFE416:
	.size	pin_irq_hdr, .-pin_irq_hdr
	.section	.text.GD32_GPIO_EXTI_IRQHandler,"ax",@progbits
	.align	1
	.globl	GD32_GPIO_EXTI_IRQHandler
	.type	GD32_GPIO_EXTI_IRQHandler, @function
GD32_GPIO_EXTI_IRQHandler:
.LFB417:
	.loc 1 555 1
	.cfi_startproc
	addi	sp,sp,-32
	.cfi_def_cfa_offset 32
	sw	ra,28(sp)
	sw	s0,24(sp)
	.cfi_offset 1, -4
	.cfi_offset 8, -8
	addi	s0,sp,32
	.cfi_def_cfa 8, 0
	mv	a5,a0
	sb	a5,-17(s0)
	.loc 1 556 60
	lb	a5,-17(s0)
	li	a4,1
	sll	a5,a4,a5
	.loc 1 556 17
	mv	a0,a5
	call	exti_interrupt_flag_get
	mv	a5,a0
	.loc 1 556 7
	beqz	a5,.L67
	.loc 1 558 9
	lb	a5,-17(s0)
	mv	a0,a5
	call	pin_irq_hdr
	.loc 1 559 54
	lb	a5,-17(s0)
	li	a4,1
	sll	a5,a4,a5
	.loc 1 559 9
	mv	a0,a5
	call	exti_interrupt_flag_clear
.L67:
	.loc 1 561 1
	nop
	lw	ra,28(sp)
	.cfi_restore 1
	lw	s0,24(sp)
	.cfi_restore 8
	addi	sp,sp,32
	.cfi_def_cfa_register 2
	jr	ra
	.cfi_endproc
.LFE417:
	.size	GD32_GPIO_EXTI_IRQHandler, .-GD32_GPIO_EXTI_IRQHandler
	.section	.text.EXTI0_IRQHandler,"ax",@progbits
	.align	1
	.globl	EXTI0_IRQHandler
	.type	EXTI0_IRQHandler, @function
EXTI0_IRQHandler:
.LFB418:
	.loc 1 564 1
	.cfi_startproc
	addi	sp,sp,-16
	.cfi_def_cfa_offset 16
	sw	ra,12(sp)
	sw	s0,8(sp)
	.cfi_offset 1, -4
	.cfi_offset 8, -8
	addi	s0,sp,16
	.cfi_def_cfa 8, 0
	.loc 1 565 5
	call	rt_interrupt_enter
	.loc 1 566 5
	li	a0,0
	call	GD32_GPIO_EXTI_IRQHandler
	.loc 1 567 5
	call	rt_interrupt_leave
	.loc 1 568 1
	nop
	lw	ra,12(sp)
	.cfi_restore 1
	lw	s0,8(sp)
	.cfi_restore 8
	addi	sp,sp,16
	.cfi_def_cfa_register 2
	jr	ra
	.cfi_endproc
.LFE418:
	.size	EXTI0_IRQHandler, .-EXTI0_IRQHandler
	.section	.text.EXTI1_IRQHandler,"ax",@progbits
	.align	1
	.globl	EXTI1_IRQHandler
	.type	EXTI1_IRQHandler, @function
EXTI1_IRQHandler:
.LFB419:
	.loc 1 571 1
	.cfi_startproc
	addi	sp,sp,-16
	.cfi_def_cfa_offset 16
	sw	ra,12(sp)
	sw	s0,8(sp)
	.cfi_offset 1, -4
	.cfi_offset 8, -8
	addi	s0,sp,16
	.cfi_def_cfa 8, 0
	.loc 1 572 5
	call	rt_interrupt_enter
	.loc 1 573 5
	li	a0,1
	call	GD32_GPIO_EXTI_IRQHandler
	.loc 1 574 5
	call	rt_interrupt_leave
	.loc 1 575 1
	nop
	lw	ra,12(sp)
	.cfi_restore 1
	lw	s0,8(sp)
	.cfi_restore 8
	addi	sp,sp,16
	.cfi_def_cfa_register 2
	jr	ra
	.cfi_endproc
.LFE419:
	.size	EXTI1_IRQHandler, .-EXTI1_IRQHandler
	.section	.text.EXTI2_IRQHandler,"ax",@progbits
	.align	1
	.globl	EXTI2_IRQHandler
	.type	EXTI2_IRQHandler, @function
EXTI2_IRQHandler:
.LFB420:
	.loc 1 578 1
	.cfi_startproc
	addi	sp,sp,-16
	.cfi_def_cfa_offset 16
	sw	ra,12(sp)
	sw	s0,8(sp)
	.cfi_offset 1, -4
	.cfi_offset 8, -8
	addi	s0,sp,16
	.cfi_def_cfa 8, 0
	.loc 1 579 5
	call	rt_interrupt_enter
	.loc 1 580 5
	li	a0,2
	call	GD32_GPIO_EXTI_IRQHandler
	.loc 1 581 5
	call	rt_interrupt_leave
	.loc 1 582 1
	nop
	lw	ra,12(sp)
	.cfi_restore 1
	lw	s0,8(sp)
	.cfi_restore 8
	addi	sp,sp,16
	.cfi_def_cfa_register 2
	jr	ra
	.cfi_endproc
.LFE420:
	.size	EXTI2_IRQHandler, .-EXTI2_IRQHandler
	.section	.text.EXTI3_IRQHandler,"ax",@progbits
	.align	1
	.globl	EXTI3_IRQHandler
	.type	EXTI3_IRQHandler, @function
EXTI3_IRQHandler:
.LFB421:
	.loc 1 585 1
	.cfi_startproc
	addi	sp,sp,-16
	.cfi_def_cfa_offset 16
	sw	ra,12(sp)
	sw	s0,8(sp)
	.cfi_offset 1, -4
	.cfi_offset 8, -8
	addi	s0,sp,16
	.cfi_def_cfa 8, 0
	.loc 1 586 5
	call	rt_interrupt_enter
	.loc 1 587 5
	li	a0,3
	call	GD32_GPIO_EXTI_IRQHandler
	.loc 1 588 5
	call	rt_interrupt_leave
	.loc 1 589 1
	nop
	lw	ra,12(sp)
	.cfi_restore 1
	lw	s0,8(sp)
	.cfi_restore 8
	addi	sp,sp,16
	.cfi_def_cfa_register 2
	jr	ra
	.cfi_endproc
.LFE421:
	.size	EXTI3_IRQHandler, .-EXTI3_IRQHandler
	.section	.text.EXTI4_IRQHandler,"ax",@progbits
	.align	1
	.globl	EXTI4_IRQHandler
	.type	EXTI4_IRQHandler, @function
EXTI4_IRQHandler:
.LFB422:
	.loc 1 592 1
	.cfi_startproc
	addi	sp,sp,-16
	.cfi_def_cfa_offset 16
	sw	ra,12(sp)
	sw	s0,8(sp)
	.cfi_offset 1, -4
	.cfi_offset 8, -8
	addi	s0,sp,16
	.cfi_def_cfa 8, 0
	.loc 1 593 5
	call	rt_interrupt_enter
	.loc 1 594 5
	li	a0,4
	call	GD32_GPIO_EXTI_IRQHandler
	.loc 1 595 5
	call	rt_interrupt_leave
	.loc 1 596 1
	nop
	lw	ra,12(sp)
	.cfi_restore 1
	lw	s0,8(sp)
	.cfi_restore 8
	addi	sp,sp,16
	.cfi_def_cfa_register 2
	jr	ra
	.cfi_endproc
.LFE422:
	.size	EXTI4_IRQHandler, .-EXTI4_IRQHandler
	.section	.text.EXTI5_9_IRQHandler,"ax",@progbits
	.align	1
	.globl	EXTI5_9_IRQHandler
	.type	EXTI5_9_IRQHandler, @function
EXTI5_9_IRQHandler:
.LFB423:
	.loc 1 599 1
	.cfi_startproc
	addi	sp,sp,-16
	.cfi_def_cfa_offset 16
	sw	ra,12(sp)
	sw	s0,8(sp)
	.cfi_offset 1, -4
	.cfi_offset 8, -8
	addi	s0,sp,16
	.cfi_def_cfa 8, 0
	.loc 1 600 5
	call	rt_interrupt_enter
	.loc 1 601 5
	li	a0,5
	call	GD32_GPIO_EXTI_IRQHandler
	.loc 1 602 5
	li	a0,6
	call	GD32_GPIO_EXTI_IRQHandler
	.loc 1 603 5
	li	a0,7
	call	GD32_GPIO_EXTI_IRQHandler
	.loc 1 604 5
	li	a0,8
	call	GD32_GPIO_EXTI_IRQHandler
	.loc 1 605 5
	li	a0,9
	call	GD32_GPIO_EXTI_IRQHandler
	.loc 1 606 5
	call	rt_interrupt_leave
	.loc 1 607 1
	nop
	lw	ra,12(sp)
	.cfi_restore 1
	lw	s0,8(sp)
	.cfi_restore 8
	addi	sp,sp,16
	.cfi_def_cfa_register 2
	jr	ra
	.cfi_endproc
.LFE423:
	.size	EXTI5_9_IRQHandler, .-EXTI5_9_IRQHandler
	.section	.text.EXTI10_15_IRQHandler,"ax",@progbits
	.align	1
	.globl	EXTI10_15_IRQHandler
	.type	EXTI10_15_IRQHandler, @function
EXTI10_15_IRQHandler:
.LFB424:
	.loc 1 610 1
	.cfi_startproc
	addi	sp,sp,-16
	.cfi_def_cfa_offset 16
	sw	ra,12(sp)
	sw	s0,8(sp)
	.cfi_offset 1, -4
	.cfi_offset 8, -8
	addi	s0,sp,16
	.cfi_def_cfa 8, 0
	.loc 1 611 5
	call	rt_interrupt_enter
	.loc 1 612 5
	li	a0,10
	call	GD32_GPIO_EXTI_IRQHandler
	.loc 1 613 5
	li	a0,11
	call	GD32_GPIO_EXTI_IRQHandler
	.loc 1 614 5
	li	a0,12
	call	GD32_GPIO_EXTI_IRQHandler
	.loc 1 615 5
	li	a0,13
	call	GD32_GPIO_EXTI_IRQHandler
	.loc 1 616 5
	li	a0,14
	call	GD32_GPIO_EXTI_IRQHandler
	.loc 1 617 5
	li	a0,15
	call	GD32_GPIO_EXTI_IRQHandler
	.loc 1 618 5
	call	rt_interrupt_leave
	.loc 1 619 1
	nop
	lw	ra,12(sp)
	.cfi_restore 1
	lw	s0,8(sp)
	.cfi_restore 8
	addi	sp,sp,16
	.cfi_def_cfa_register 2
	jr	ra
	.cfi_endproc
.LFE424:
	.size	EXTI10_15_IRQHandler, .-EXTI10_15_IRQHandler
	.section	.rodata
	.align	2
.LC0:
	.string	"pin"
	.section	.text.rt_hw_pin_init,"ax",@progbits
	.align	1
	.globl	rt_hw_pin_init
	.type	rt_hw_pin_init, @function
rt_hw_pin_init:
.LFB425:
	.loc 1 622 1
	.cfi_startproc
	addi	sp,sp,-32
	.cfi_def_cfa_offset 32
	sw	ra,28(sp)
	sw	s0,24(sp)
	.cfi_offset 1, -4
	.cfi_offset 8, -8
	addi	s0,sp,32
	.cfi_def_cfa 8, 0
	.loc 1 625 14
	li	a2,0
	lla	a1,gd32_pin_ops
	lla	a0,.LC0
	call	rt_device_pin_register
	sw	a0,-20(s0)
	.loc 1 627 12
	lw	a5,-20(s0)
	.loc 1 628 1
	mv	a0,a5
	lw	ra,28(sp)
	.cfi_restore 1
	lw	s0,24(sp)
	.cfi_restore 8
	addi	sp,sp,32
	.cfi_def_cfa_register 2
	jr	ra
	.cfi_endproc
.LFE425:
	.size	rt_hw_pin_init, .-rt_hw_pin_init
	.globl	__rt_init_rt_hw_pin_init
	.section	.rti_fn.1,"a"
	.align	2
	.type	__rt_init_rt_hw_pin_init, @object
	.size	__rt_init_rt_hw_pin_init, 4
__rt_init_rt_hw_pin_init:
	.word	rt_hw_pin_init
	.text
.Letext0:
	.file 2 "e:\\gd32\\gd32vw5\\gd32embeddedbuilder_v1.5.4_rel\\tools\\risc-v embedded gcc\\8.2.0-2.2-20190521-0004\\riscv-none-embed\\include\\machine\\_default_types.h"
	.file 3 "e:\\gd32\\gd32vw5\\gd32embeddedbuilder_v1.5.4_rel\\tools\\risc-v embedded gcc\\8.2.0-2.2-20190521-0004\\riscv-none-embed\\include\\sys\\_stdint.h"
	.file 4 "e:\\gd32\\gd32vw5\\gd32embeddedbuilder_v1.5.4_rel\\tools\\risc-v embedded gcc\\8.2.0-2.2-20190521-0004\\lib\\gcc\\riscv-none-embed\\8.2.0\\include\\stddef.h"
	.file 5 "e:\\gd32\\gd32vw5\\gd32embeddedbuilder_v1.5.4_rel\\tools\\risc-v embedded gcc\\8.2.0-2.2-20190521-0004\\riscv-none-embed\\include\\sys\\lock.h"
	.file 6 "e:\\gd32\\gd32vw5\\gd32embeddedbuilder_v1.5.4_rel\\tools\\risc-v embedded gcc\\8.2.0-2.2-20190521-0004\\riscv-none-embed\\include\\sys\\_types.h"
	.file 7 "e:\\gd32\\gd32vw5\\gd32embeddedbuilder_v1.5.4_rel\\tools\\risc-v embedded gcc\\8.2.0-2.2-20190521-0004\\riscv-none-embed\\include\\sys\\types.h"
	.file 8 "e:\\gd32\\gd32vw5\\gd32embeddedbuilder_v1.5.4_rel\\tools\\risc-v embedded gcc\\8.2.0-2.2-20190521-0004\\riscv-none-embed\\include\\sys\\reent.h"
	.file 9 "e:\\gd32\\gd32vw5\\gd32embeddedbuilder_v1.5.4_rel\\tools\\risc-v embedded gcc\\8.2.0-2.2-20190521-0004\\riscv-none-embed\\include\\sys\\errno.h"
	.file 10 "E:\\GD32\\GD32VW5\\rt-thread-gd32vw553\\rt-thread-main\\rt-thread\\include/rttypes.h"
	.file 11 "E:\\GD32\\GD32VW5\\rt-thread-gd32vw553\\rt-thread-main\\rt-thread\\include/rtdef.h"
	.file 12 "E:\\GD32\\GD32VW5\\rt-thread-gd32vw553\\rt-thread-main\\rt-thread\\components\\finsh/finsh.h"
	.file 13 "E:\\GD32\\GD32VW5\\rt-thread-gd32vw553\\rt-thread-main\\rt-thread\\components\\drivers\\include/drivers/dev_pin.h"
	.file 14 "packages\\gd32-riscv-series-latest\\GD32VW55x\\GD32VW55x_standard_peripheral/gd32vw55x.h"
	.file 15 "packages\\gd32-riscv-series-latest\\GD32VW55x\\GD32VW55x_standard_peripheral/system_gd32vw55x.h"
	.file 16 "E:\\GD32\\GD32VW5\\rt-thread-gd32vw553\\rt-thread-main\\rt-thread\\components\\drivers\\wlan/dev_wlan.h"
	.file 17 "packages\\gd32-riscv-series-latest\\GD32VW55x\\GD32VW55x_standard_peripheral\\Include/gd32vw55x_exti.h"
	.file 18 "packages\\gd32-riscv-series-latest\\GD32VW55x\\GD32VW55x_standard_peripheral\\Include/gd32vw55x_gpio.h"
	.file 19 "packages\\gd32-riscv-series-latest\\GD32VW55x\\GD32VW55x_standard_peripheral\\Include/gd32vw55x_rcu.h"
	.file 20 "board/board.h"
	.file 21 "E:\\GD32\\GD32VW5\\rt-thread-gd32vw553\\rt-thread-main\\rt-thread\\bsp\\gd32\\risc-v\\libraries\\gd32_drivers\\drv_gpio.h"